; Function Attrs: mustprogress nounwind uwtable
define void @_ZN14TlsCredentialsD2Ev(ptr nocapture noundef nonnull readonly align 8 dereferenceable(24) %this) unnamed_addr #4 align 2 personality ptr @__gxx_personality_v0 {
entry:
  %options_ = getelementptr inbounds i8, ptr %this, i64 16
  %0 = load ptr, ptr %options_, align 8
  %cmp.not.i = icmp eq ptr %0, null
  br i1 %cmp.not.i, label %_ZN9grpc_core13RefCountedPtrI28grpc_tls_credentials_optionsED2Ev.exit, label %if.then.i

if.then.i:                                        ; preds = %entry
  %refs_.i.i = getelementptr inbounds i8, ptr %0, i64 8
  %1 = atomicrmw sub ptr %refs_.i.i, i64 1 acq_rel, align 8
  %cmp.i.i.i = icmp eq i64 %1, 1
  br i1 %cmp.i.i.i, label %if.then.i.i, label %_ZN9grpc_core13RefCountedPtrI28grpc_tls_credentials_optionsED2Ev.exit

if.then.i.i:                                      ; preds = %if.then.i
  %vtable.i.i.i = load ptr, ptr %0, align 8
  %vfn.i.i.i = getelementptr inbounds i8, ptr %vtable.i.i.i, i64 8
  %2 = load ptr, ptr %vfn.i.i.i, align 8
  tail call void %2(ptr noundef nonnull align 8 dereferenceable(217) %0) #17
  br label %_ZN9grpc_core13RefCountedPtrI28grpc_tls_credentials_optionsED2Ev.exit

_ZN9grpc_core13RefCountedPtrI28grpc_tls_credentials_optionsED2Ev.exit: ; preds = %entry, %if.then.i, %if.then.i.i
  ret void
}